; Function Attrs: mustprogress nounwind uwtable
define hidden noundef i64 @_ZN24CgroupV2MemoryController25memory_max_usage_in_bytesEv(ptr nocapture nonnull readnone align 8 %0) unnamed_addr #0 align 2 {
  %2 = load volatile ptr, ptr getelementptr inbounds (i8, ptr @_ZN16LogTagSetMappingILN6LogTag4typeE105ELS1_25ELS1_0ELS1_0ELS1_0ELS1_0EE7_tagsetE, i64 48), align 8
  %.not = icmp eq ptr %2, null
  br i1 %.not, label %4, label %3

3:                                                ; preds = %1
  tail call void (ptr, ...) @_ZN7LogImplILN6LogTag4typeE105ELS1_25ELS1_0ELS1_0ELS1_0ELS1_0EE5writeILN8LogLevel4typeE1EEEvPKcz(ptr noundef nonnull @.str.25)
  br label %4

4:                                                ; preds = %1, %3
  ret i64 -2
}